; ModuleID = '5/1112.c'
source_filename = "5/1112.c"
target datalayout = "e-m:e-p270:32:32-p271:32:32-p272:64:64-i64:64-f80:128-n8:16:32:64-S128"
target triple = "x86_64-pc-linux-gnu"

@.str = private unnamed_addr constant [8 x i8] c"%lf%s%s\00", align 1
@.str.1 = private unnamed_addr constant [6 x i8] c"error\00", align 1
@.str.2 = private unnamed_addr constant [4 x i8] c"yes\00", align 1
@.str.3 = private unnamed_addr constant [3 x i8] c"no\00", align 1

; Function Attrs: noinline nounwind uwtable
define dso_local i32 @main() #0 {
  %1 = alloca i32, align 4
  %2 = alloca double, align 8
  %3 = alloca i32, align 4
  %4 = alloca i32, align 4
  %5 = alloca i32, align 4
  %6 = alloca [500 x i8], align 16
  %7 = alloca [500 x i8], align 16
  %8 = alloca i32, align 4
  store i32 0, i32* %1, align 4
  store i32 0, i32* %5, align 4
  %9 = getelementptr inbounds [500 x i8], [500 x i8]* %6, i64 0, i64 0
  %10 = getelementptr inbounds [500 x i8], [500 x i8]* %7, i64 0, i64 0
  %11 = call i32 (i8*, ...) @__isoc99_scanf(i8* getelementptr inbounds ([8 x i8], [8 x i8]* @.str, i64 0, i64 0), double* %2, i8* %9, i8* %10)
  %12 = getelementptr inbounds [500 x i8], [500 x i8]* %6, i64 0, i64 0
  %13 = call i64 @strlen(i8* %12) #3
  %14 = trunc i64 %13 to i32
  store i32 %14, i32* %3, align 4
  %15 = getelementptr inbounds [500 x i8], [500 x i8]* %7, i64 0, i64 0
  %16 = call i64 @strlen(i8* %15) #3
  %17 = trunc i64 %16 to i32
  store i32 %17, i32* %4, align 4
  %18 = load i32, i32* %3, align 4
  %19 = load i32, i32* %4, align 4
  %20 = icmp ne i32 %18, %19
  br i1 %20, label %21, label %23

21:                                               ; preds = %0
  %22 = call i32 (i8*, ...) @printf(i8* getelementptr inbounds ([6 x i8], [6 x i8]* @.str.1, i64 0, i64 0))
  store i32 0, i32* %1, align 4
  br label %121

23:                                               ; preds = %0
  store i32 0, i32* %8, align 4
  br label %24

24:                                               ; preds = %104, %23
  %25 = load i32, i32* %8, align 4
  %26 = load i32, i32* %3, align 4
  %27 = icmp slt i32 %25, %26
  br i1 %27, label %28, label %107

28:                                               ; preds = %24
  %29 = load i32, i32* %8, align 4
  %30 = sext i32 %29 to i64
  %31 = getelementptr inbounds [500 x i8], [500 x i8]* %6, i64 0, i64 %30
  %32 = load i8, i8* %31, align 1
  %33 = sext i8 %32 to i32
  %34 = icmp ne i32 %33, 65
  br i1 %34, label %35, label %58

35:                                               ; preds = %28
  %36 = load i32, i32* %8, align 4
  %37 = sext i32 %36 to i64
  %38 = getelementptr inbounds [500 x i8], [500 x i8]* %6, i64 0, i64 %37
  %39 = load i8, i8* %38, align 1
  %40 = sext i8 %39 to i32
  %41 = icmp ne i32 %40, 84
  br i1 %41, label %42, label %58

42:                                               ; preds = %35
  %43 = load i32, i32* %8, align 4
  %44 = sext i32 %43 to i64
  %45 = getelementptr inbounds [500 x i8], [500 x i8]* %6, i64 0, i64 %44
  %46 = load i8, i8* %45, align 1
  %47 = sext i8 %46 to i32
  %48 = icmp ne i32 %47, 67
  br i1 %48, label %49, label %58

49:                                               ; preds = %42
  %50 = load i32, i32* %8, align 4
  %51 = sext i32 %50 to i64
  %52 = getelementptr inbounds [500 x i8], [500 x i8]* %6, i64 0, i64 %51
  %53 = load i8, i8* %52, align 1
  %54 = sext i8 %53 to i32
  %55 = icmp ne i32 %54, 71
  br i1 %55, label %56, label %58

56:                                               ; preds = %49
  %57 = call i32 (i8*, ...) @printf(i8* getelementptr inbounds ([6 x i8], [6 x i8]* @.str.1, i64 0, i64 0))
  store i32 0, i32* %1, align 4
  br label %121

58:                                               ; preds = %49, %42, %35, %28
  %59 = load i32, i32* %8, align 4
  %60 = sext i32 %59 to i64
  %61 = getelementptr inbounds [500 x i8], [500 x i8]* %7, i64 0, i64 %60
  %62 = load i8, i8* %61, align 1
  %63 = sext i8 %62 to i32
  %64 = icmp ne i32 %63, 65
  br i1 %64, label %65, label %88

65:                                               ; preds = %58
  %66 = load i32, i32* %8, align 4
  %67 = sext i32 %66 to i64
  %68 = getelementptr inbounds [500 x i8], [500 x i8]* %7, i64 0, i64 %67
  %69 = load i8, i8* %68, align 1
  %70 = sext i8 %69 to i32
  %71 = icmp ne i32 %70, 84
  br i1 %71, label %72, label %88

72:                                               ; preds = %65
  %73 = load i32, i32* %8, align 4
  %74 = sext i32 %73 to i64
  %75 = getelementptr inbounds [500 x i8], [500 x i8]* %7, i64 0, i64 %74
  %76 = load i8, i8* %75, align 1
  %77 = sext i8 %76 to i32
  %78 = icmp ne i32 %77, 67
  br i1 %78, label %79, label %88

79:                                               ; preds = %72
  %80 = load i32, i32* %8, align 4
  %81 = sext i32 %80 to i64
  %82 = getelementptr inbounds [500 x i8], [500 x i8]* %7, i64 0, i64 %81
  %83 = load i8, i8* %82, align 1
  %84 = sext i8 %83 to i32
  %85 = icmp ne i32 %84, 71
  br i1 %85, label %86, label %88

86:                                               ; preds = %79
  %87 = call i32 (i8*, ...) @printf(i8* getelementptr inbounds ([6 x i8], [6 x i8]* @.str.1, i64 0, i64 0))
  store i32 0, i32* %1, align 4
  br label %121

88:                                               ; preds = %79, %72, %65, %58
  %89 = load i32, i32* %8, align 4
  %90 = sext i32 %89 to i64
  %91 = getelementptr inbounds [500 x i8], [500 x i8]* %6, i64 0, i64 %90
  %92 = load i8, i8* %91, align 1
  %93 = sext i8 %92 to i32
  %94 = load i32, i32* %8, align 4
  %95 = sext i32 %94 to i64
  %96 = getelementptr inbounds [500 x i8], [500 x i8]* %7, i64 0, i64 %95
  %97 = load i8, i8* %96, align 1
  %98 = sext i8 %97 to i32
  %99 = icmp eq i32 %93, %98
  br i1 %99, label %100, label %103

100:                                              ; preds = %88
  %101 = load i32, i32* %5, align 4
  %102 = add nsw i32 %101, 1
  store i32 %102, i32* %5, align 4
  br label %103

103:                                              ; preds = %100, %88
  br label %104

104:                                              ; preds = %103
  %105 = load i32, i32* %8, align 4
  %106 = add nsw i32 %105, 1
  store i32 %106, i32* %8, align 4
  br label %24

107:                                              ; preds = %24
  %108 = load i32, i32* %5, align 4
  %109 = sitofp i32 %108 to double
  %110 = fmul double 1.000000e+00, %109
  %111 = load i32, i32* %3, align 4
  %112 = sitofp i32 %111 to double
  %113 = fdiv double %110, %112
  %114 = load double, double* %2, align 8
  %115 = fcmp ogt double %113, %114
  br i1 %115, label %116, label %118

116:                                              ; preds = %107
  %117 = call i32 (i8*, ...) @printf(i8* getelementptr inbounds ([4 x i8], [4 x i8]* @.str.2, i64 0, i64 0))
  br label %120

118:                                              ; preds = %107
  %119 = call i32 (i8*, ...) @printf(i8* getelementptr inbounds ([3 x i8], [3 x i8]* @.str.3, i64 0, i64 0))
  br label %120

120:                                              ; preds = %118, %116
  store i32 0, i32* %1, align 4
  br label %121

121:                                              ; preds = %120, %86, %56, %21
  %122 = load i32, i32* %1, align 4
  ret i32 %122
}

declare dso_local i32 @__isoc99_scanf(i8*, ...) #1

; Function Attrs: nounwind readonly
declare dso_local i64 @strlen(i8*) #2

declare dso_local i32 @printf(i8*, ...) #1


!llvm.module.flags = !{!0}
!llvm.ident = !{!1}

!0 = !{i32 1, !"wchar_size", i32 4}
!1 = !{!"clang version 10.0.0-4ubuntu1 "}
